Certificate:
    Data:
        Version: 3 (0x2)
        Serial Number: 1 (0x1)
    Signature Algorithm: sha256WithRSAEncryption
        Issuer: C=FR, ST=Radius, L=Somewhere, O=Example Inc./emailAddress=admin@example.com, CN=Example Certificate Authority
        Validity
            Not Before: Sep  6 02:00:49 2017 GMT
            Not After : Nov  5 02:00:49 2017 GMT
        Subject: C=FR, ST=Radius, O=Example Inc., CN=Example Server Certificate/emailAddress=admin@example.com
        Subject Public Key Info:
            Public Key Algorithm: rsaEncryption
                Public-Key: (2048 bit)
                Modulus:
                    00:d0:04:0d:4d:bf:89:79:00:bf:5f:36:46:d4:20:
                    83:75:33:66:fd:12:23:e7:e8:43:45:82:90:19:84:
                    ef:89:88:bf:16:d4:df:45:b2:91:27:8a:f3:8a:86:
                    15:2d:cb:cb:59:ec:76:82:10:8f:c9:78:27:67:0e:
                    b3:33:78:ff:c1:ec:68:5f:07:b6:4c:56:c5:97:f2:
                    65:4b:75:7a:9a:5b:97:9f:e2:b1:cb:25:8c:44:42:
                    3b:05:df:66:1c:d2:cf:60:ec:54:fd:5f:f6:a1:cf:
                    a2:ce:82:6a:f6:c1:a0:f1:b0:ee:77:56:e7:78:24:
                    ef:1b:a6:ce:1e:b5:dc:4a:75:d7:ff:63:e4:61:e5:
                    6d:2d:05:17:de:82:52:4c:a6:2c:fa:6c:d4:1c:10:
                    bd:c4:1e:36:7e:6b:5c:19:80:6f:d8:c4:d2:70:65:
                    e4:20:e7:44:d0:23:3a:6e:95:bb:61:de:bc:11:50:
                    c6:b5:87:31:d9:6b:6b:30:9e:85:ea:5b:4d:43:67:
                    b6:7f:cf:14:63:2f:ce:40:aa:3f:71:c2:4d:33:5a:
                    74:3d:67:a1:61:8d:9d:f1:d4:9e:a5:9c:54:44:72:
                    c4:1f:03:78:38:b8:e2:e0:32:c3:7a:31:95:40:b1:
                    0a:46:6d:1d:b2:81:06:34:e7:81:59:e6:59:53:86:
                    c7:25
                Exponent: 65537 (0x10001)
        X509v3 extensions:
            X509v3 Extended Key Usage: 
                TLS Web Server Authentication
            X509v3 CRL Distribution Points: 

                Full Name:
                  URI:http://www.example.com/example_ca.crl

    Signature Algorithm: sha256WithRSAEncryption
         a5:d9:87:05:3b:35:5c:f8:dd:d6:17:f2:64:f9:f1:b9:a6:74:
         84:3a:56:e9:82:ba:96:ad:92:de:c1:90:0e:eb:c9:17:89:69:
         21:07:72:d8:35:a8:cc:33:47:64:bd:fd:05:61:9e:82:90:3f:
         f6:44:8e:e3:9f:f1:de:63:6b:31:a8:cb:d3:20:bf:18:6c:94:
         6c:21:ad:96:d0:31:37:15:72:80:93:d2:7e:0e:06:31:a3:60:
         22:1c:c6:a7:14:34:72:86:fa:04:11:28:5e:4b:00:b7:f1:b0:
         66:31:14:51:3f:d3:ef:eb:cb:0b:50:b6:62:39:5a:70:ff:e5:
         d6:2f:07:93:cc:da:36:e4:ae:c6:96:ec:5b:12:88:35:40:81:
         89:b3:12:e2:7d:2d:f7:57:9b:f7:7b:20:a3:4f:3e:b2:f2:fd:
         5f:ba:64:c4:9b:88:7b:33:fb:97:ec:e8:ac:3b:3c:a9:d4:d0:
         28:03:1c:9b:93:7e:ac:75:e4:a7:fd:84:6b:bd:e5:04:1a:62:
         2d:cd:01:a6:2b:66:b5:cd:e7:5d:dd:cd:d1:2e:51:7a:9c:0c:
         68:c1:6d:54:25:2d:3f:7d:6e:ea:af:9a:ee:c0:f1:20:55:39:
         97:7d:59:f9:20:e8:b1:b1:85:82:be:a3:ba:e9:1d:38:b1:d2:
         1f:24:04:0d
-----BEGIN CERTIFICATE-----
MIID2jCCAsKgAwIBAgIBATANBgkqhkiG9w0BAQsFADCBkzELMAkGA1UEBhMCRlIx
DzANBgNVBAgTBlJhZGl1czESMBAGA1UEBxMJU29tZXdoZXJlMRUwEwYDVQQKEwxF
eGFtcGxlIEluYy4xIDAeBgkqhkiG9w0BCQEWEWFkbWluQGV4YW1wbGUuY29tMSYw
JAYDVQQDEx1FeGFtcGxlIENlcnRpZmljYXRlIEF1dGhvcml0eTAeFw0xNzA5MDYw
MjAwNDlaFw0xNzExMDUwMjAwNDlaMHwxCzAJBgNVBAYTAkZSMQ8wDQYDVQQIEwZS
YWRpdXMxFTATBgNVBAoTDEV4YW1wbGUgSW5jLjEjMCEGA1UEAxMaRXhhbXBsZSBT
ZXJ2ZXIgQ2VydGlmaWNhdGUxIDAeBgkqhkiG9w0BCQEWEWFkbWluQGV4YW1wbGUu
Y29tMIIBIjANBgkqhkiG9w0BAQEFAAOCAQ8AMIIBCgKCAQEA0AQNTb+JeQC/XzZG
1CCDdTNm/RIj5+hDRYKQGYTviYi/FtTfRbKRJ4rzioYVLcvLWex2ghCPyXgnZw6z
M3j/wexoXwe2TFbFl/JlS3V6mluXn+KxyyWMREI7Bd9mHNLPYOxU/V/2oc+izoJq
9sGg8bDud1bneCTvG6bOHrXcSnXX/2PkYeVtLQUX3oJSTKYs+mzUHBC9xB42fmtc
GYBv2MTScGXkIOdE0CM6bpW7Yd68EVDGtYcx2WtrMJ6F6ltNQ2e2f88UYy/OQKo/
ccJNM1p0PWehYY2d8dSepZxURHLEHwN4OLji4DLDejGVQLEKRm0dsoEGNOeBWeZZ
U4bHJQIDAQABo08wTTATBgNVHSUEDDAKBggrBgEFBQcDATA2BgNVHR8ELzAtMCug
KaAnhiVodHRwOi8vd3d3LmV4YW1wbGUuY29tL2V4YW1wbGVfY2EuY3JsMA0GCSqG
SIb3DQEBCwUAA4IBAQCl2YcFOzVc+N3WF/Jk+fG5pnSEOlbpgrqWrZLewZAO68kX
iWkhB3LYNajMM0dkvf0FYZ6CkD/2RI7jn/HeY2sxqMvTIL8YbJRsIa2W0DE3FXKA
k9J+DgYxo2AiHManFDRyhvoEESheSwC38bBmMRRRP9Pv68sLULZiOVpw/+XWLweT
zNo25K7GluxbEog1QIGJsxLifS33V5v3eyCjTz6y8v1fumTEm4h7M/uX7OisOzyp
1NAoAxybk36sdeSn/YRrveUEGmItzQGmK2a1zedd3c3RLlF6nAxowW1UJS0/fW7q
r5ruwPEgVTmXfVn5IOixsYWCvqO66R04sdIfJAQN
-----END CERTIFICATE-----
